target datalayout = "e-m:e-p270:32:32-p271:32:32-p272:64:64-i64:64-i128:128-f80:128-n8:16:32:64-S128"
target triple = "x86_64-pc-linux-gnu"

; Function Attrs: mustprogress nounwind uwtable
define hidden noundef i64 @_ZN3sat3cut11effect_maskEj(i32 noundef %0) #6 align 2 {
  %2 = alloca i32, align 4
  %3 = alloca i64, align 8
  %4 = alloca i32, align 4
  store i32 %0, ptr %2, align 4, !tbaa !12
  call void @llvm.lifetime.start.p0(i64 8, ptr %3) #3
  store i64 0, ptr %3, align 8, !tbaa !28
  %5 = load i32, ptr %2, align 4, !tbaa !12
  %6 = icmp eq i32 %5, 6
  br i1 %6, label %7, label %8

7:                                                ; preds = %1
  store i64 -1, ptr %3, align 8, !tbaa !28
  br label %30

8:                                                ; preds = %1
  %9 = load i32, ptr %2, align 4, !tbaa !12
  %10 = shl i32 1, %9
  %11 = zext i32 %10 to i64
  %12 = shl i64 1, %11
  %13 = sub i64 %12, 1
  store i64 %13, ptr %3, align 8, !tbaa !28
  call void @llvm.lifetime.start.p0(i64 4, ptr %4) #3
  %14 = load i32, ptr %2, align 4, !tbaa !12
  %15 = add i32 %14, 1
  %16 = shl i32 1, %15
  store i32 %16, ptr %4, align 4, !tbaa !12
  br label %17

17:                                               ; preds = %20, %8
  %18 = load i32, ptr %4, align 4, !tbaa !12
  %19 = icmp ult i32 %18, 64
  br i1 %19, label %20, label %29

20:                                               ; preds = %17
  %21 = load i64, ptr %3, align 8, !tbaa !28
  %22 = load i32, ptr %4, align 4, !tbaa !12
  %23 = zext i32 %22 to i64
  %24 = shl i64 %21, %23
  %25 = load i64, ptr %3, align 8, !tbaa !28
  %26 = or i64 %25, %24
  store i64 %26, ptr %3, align 8, !tbaa !28
  %27 = load i32, ptr %4, align 4, !tbaa !12
  %28 = mul i32 %27, 2
  store i32 %28, ptr %4, align 4, !tbaa !12
  br label %17, !llvm.loop !75

29:                                               ; preds = %17
  call void @llvm.lifetime.end.p0(i64 4, ptr %4) #3
  br label %30

30:                                               ; preds = %29, %7
  %31 = load i64, ptr %3, align 8, !tbaa !28
  call void @llvm.lifetime.end.p0(i64 8, ptr %3) #3
  ret i64 %31
}