; Function Attrs: mustprogress nofree norecurse nosync nounwind willreturn memory(none) uwtable
define hidden noundef i64 @_ZN3sat3cut11effect_maskEj(i32 noundef %0) local_unnamed_addr #9 align 2 {
  %2 = icmp eq i32 %0, 6
  br i1 %2, label %.loopexit, label %3

3:                                                ; preds = %1
  %4 = shl nuw i32 1, %0
  %5 = zext nneg i32 %4 to i64
  %notmask = shl nsw i64 -1, %5
  %6 = xor i64 %notmask, -1
  %7 = add i32 %0, 1
  %8 = icmp ult i32 %7, 6
  br i1 %8, label %.lr.ph.preheader, label %.loopexit

.lr.ph.preheader:                                 ; preds = %3
  %9 = shl nuw nsw i32 1, %7
  br label %.lr.ph

.lr.ph:                                           ; preds = %.lr.ph.preheader, %.lr.ph
  %.012 = phi i32 [ %13, %.lr.ph ], [ %9, %.lr.ph.preheader ]
  %.111 = phi i64 [ %12, %.lr.ph ], [ %6, %.lr.ph.preheader ]
  %10 = zext nneg i32 %.012 to i64
  %11 = shl i64 %.111, %10
  %12 = or i64 %11, %.111
  %13 = shl nuw nsw i32 %.012, 1
  %14 = icmp samesign ult i32 %.012, 32
  br i1 %14, label %.lr.ph, label %.loopexit, !llvm.loop !56

.loopexit:                                        ; preds = %.lr.ph, %3, %1
  %.09 = phi i64 [ -1, %1 ], [ %6, %3 ], [ %12, %.lr.ph ]
  ret i64 %.09
}